Certificate:
    Data:
        Version: 3 (0x2)
        Serial Number:
            3c:39:14:be:0f:26:ad:6a:59:29:26:e0:46:5d:2e:25:fa:cf:15:58
        Signature Algorithm: ecdsa-with-SHA512
        Issuer: C=TW, ST=\xE5\x8F\xB0\xE7\x81\xA3\xE7\x9C\x81, O=LCINAT\xE7\xA7\x81\xE4\xBA\xBA\xE6\x86\x91\xE8\xAD\x89\xE7\xAE\xA1\xE7\x90\x86\xE4\xB8\xAD\xE5\xBF\x83, OU=ECC\xE6\x86\x91\xE8\xAD\x89\xE4\xB8\xAD\xE5\xBF\x83, CN=LCINAT ECC CA\xE6\xA0\xB9\xE6\x86\x91\xE8\xAD\x89/businessCategory=Private Organization/serialNumber=PriOrg-1120200000T/street=\xE8\x98\x86\xE6\xB4\xB2\xE5\x8D\x80\xE6\xB0\xB8\xE6\xA8\x82\xE8\xA1\x9755\xE8\x99\x9F/postalCode=247/jurisdictionL=\xE6\x96\xB0\xE5\x8C\x97\xE5\xB8\x82/jurisdictionST=\xE5\x8F\xB0\xE7\x81\xA3\xE7\x9C\x81/jurisdictionC=TW
        Validity
            Not Before: Feb  6 05:24:33 2023 GMT
            Not After : Mar 10 05:24:33 2024 GMT
        Subject: C=TW, ST=\xE5\x8F\xB0\xE7\x81\xA3\xE7\x9C\x81, L=\xE6\x96\xB0\xE5\x8C\x97\xE5\xB8\x82, O=LCINAT\xE7\xA7\x81\xE4\xBA\xBA\xE6\x86\x91\xE8\xAD\x89\xE7\xAE\xA1\xE7\x90\x86\xE4\xB8\xAD\xE5\xBF\x83, OU=ECC EV server CA Cert. Center, CN=ECC EV server CA Cert/businessCategory=Private Organization/serialNumber=PriOrg-1120200000T/street=\xE8\x98\x86\xE6\xB4\xB2\xE5\x8D\x80\xE6\xB0\xB8\xE6\xA8\x82\xE8\xA1\x9755\xE8\x99\x9F/postalCode=247/jurisdictionL=\xE6\x96\xB0\xE5\x8C\x97\xE5\xB8\x82/jurisdictionST=\xE5\x8F\xB0\xE7\x81\xA3\xE7\x9C\x81/jurisdictionC=TW
        Subject Public Key Info:
            Public Key Algorithm: id-ecPublicKey
                Public-Key: (521 bit)
                pub:
                    04:01:26:58:2e:41:1a:fc:ad:f4:31:81:97:68:ca:
                    7c:7b:46:35:17:2f:07:fd:39:a0:e0:06:d0:72:12:
                    20:9f:42:29:74:84:cd:64:6f:f5:23:94:6e:47:9d:
                    97:09:ad:82:fa:1f:77:97:24:27:fb:47:e0:ad:f5:
                    ba:de:4b:52:9c:70:14:00:d2:15:d5:ee:0d:bd:60:
                    0e:b2:ea:a4:7d:8f:be:75:2a:d1:be:88:48:eb:6d:
                    48:4c:61:d3:d2:ec:ee:d2:a8:65:d3:b5:d8:5e:09:
                    a6:1f:92:17:0c:38:64:99:24:c3:54:b6:da:fc:68:
                    26:d0:a9:52:25:00:44:3b:93:f6:37:d9:67
                ASN1 OID: secp521r1
                NIST CURVE: P-521
        X509v3 extensions:
            X509v3 Subject Key Identifier: 
                30:77:A3:BB:AD:E9:8D:F5:B3:E1:4B:B5:67:C7:F5:AB:81:BC:C0:B3
            X509v3 Authority Key Identifier: 
                08:74:35:58:94:3D:F8:0C:7C:49:2D:EC:04:A3:9E:7B:2F:E5:B8:1B
            X509v3 Issuer Alternative Name: 
                <EMPTY>

            X509v3 Basic Constraints: critical
                CA:TRUE
            X509v3 CRL Distribution Points: 
                Full Name:
                  URI:https://ecca.welcinat.com/CRL/ROOTCA/ca.crl
            Authority Information Access: 
                CA Issuers - URI:https://ecca.welcinat.com/CERTS/RootCA.crt
            X509v3 Certificate Policies: 
                Policy: 2.23.140.1.1
                Policy: trustList
                  CPS: https://ecca.welcinat.com/
    Signature Algorithm: ecdsa-with-SHA512
    Signature Value:
        30:81:88:02:42:00:dc:7e:13:07:14:74:e2:b3:24:ce:12:a4:
        49:07:0e:ac:38:3f:88:9f:ea:e3:ed:20:40:f0:ce:35:ea:dd:
        11:56:d2:fa:eb:a0:b6:5e:c8:e2:e7:26:d4:8a:b0:41:88:4d:
        a2:4f:96:d6:f3:86:96:1a:4a:eb:6a:4b:6d:ae:d9:69:04:02:
        42:01:c7:d6:79:74:4b:7e:fd:9b:4a:b3:d2:9b:f7:4e:2d:7b:
        d7:47:d7:bb:26:3a:59:1a:2b:db:01:1e:4f:5c:ac:64:87:e7:
        14:29:70:1f:90:6b:6f:19:c9:d2:a9:dd:85:0d:1b:d2:a9:a4:
        75:47:7a:9a:e8:bf:68:1c:69:a8:44:6d:f8
-----BEGIN CERTIFICATE-----
MIIFXzCCBMCgAwIBAgIUPDkUvg8mrWpZKSbgRl0uJfrPFVgwCgYIKoZIzj0EAwQw
ggE+MQswCQYDVQQGEwJUVzESMBAGA1UECAwJ5Y+w54Gj55yBMScwJQYDVQQKDB5M
Q0lOQVTnp4HkurrmhpHorYnnrqHnkIbkuK3lv4MxGDAWBgNVBAsMD0VDQ+aGkeit
ieS4reW/gzEfMB0GA1UEAwwWTENJTkFUIEVDQyBDQeagueaGkeitiTEdMBsGA1UE
DwwUUHJpdmF0ZSBPcmdhbml6YXRpb24xGzAZBgNVBAUTElByaU9yZy0xMTIwMjAw
MDAwVDEgMB4GA1UECQwX6JiG5rSy5Y2A5rC45qiC6KGXNTXomZ8xDDAKBgNVBBEM
AzI0NzEaMBgGCysGAQQBgjc8AgEBDAnmlrDljJfluIIxGjAYBgsrBgEEAYI3PAIB
AgwJ5Y+w54Gj55yBMRMwEQYLKwYBBAGCNzwCAQMTAlRXMB4XDTIzMDIwNjA1MjQz
M1oXDTI0MDMxMDA1MjQzM1owggFfMQswCQYDVQQGEwJUVzESMBAGA1UECAwJ5Y+w
54Gj55yBMRIwEAYDVQQHDAnmlrDljJfluIIxJzAlBgNVBAoMHkxDSU5BVOengeS6
uuaGkeitieeuoeeQhuS4reW/gzEmMCQGA1UECwwdRUNDIEVWIHNlcnZlciBDQSBD
ZXJ0LiBDZW50ZXIxHjAcBgNVBAMMFUVDQyBFViBzZXJ2ZXIgQ0EgQ2VydDEdMBsG
A1UEDwwUUHJpdmF0ZSBPcmdhbml6YXRpb24xGzAZBgNVBAUTElByaU9yZy0xMTIw
MjAwMDAwVDEgMB4GA1UECQwX6JiG5rSy5Y2A5rC45qiC6KGXNTXomZ8xDDAKBgNV
BBEMAzI0NzEaMBgGCysGAQQBgjc8AgEBDAnmlrDljJfluIIxGjAYBgsrBgEEAYI3
PAIBAgwJ5Y+w54Gj55yBMRMwEQYLKwYBBAGCNzwCAQMTAlRXMIGbMBAGByqGSM49
AgEGBSuBBAAjA4GGAAQBJlguQRr8rfQxgZdoynx7RjUXLwf9OaDgBtByEiCfQil0
hM1kb/UjlG5HnZcJrYL6H3eXJCf7R+Ct9breS1KccBQA0hXV7g29YA6y6qR9j751
KtG+iEjrbUhMYdPS7O7SqGXTtdheCaYfkhcMOGSZJMNUttr8aCbQqVIlAEQ7k/Y3
2WejggEyMIIBLjAdBgNVHQ4EFgQUMHeju63pjfWz4Uu1Z8f1q4G8wLMwHwYDVR0j
BBgwFoAUCHQ1WJQ9+Ax8SS3sBKOeey/luBswCQYDVR0SBAIwADAPBgNVHRMBAf8E
BTADAQH/MDwGA1UdHwQ1MDMwMaAvoC2GK2h0dHBzOi8vZWNjYS53ZWxjaW5hdC5j
b20vQ1JML1JPT1RDQS9jYS5jcmwwRgYIKwYBBQUHAQEEOjA4MDYGCCsGAQUFBzAC
hipodHRwczovL2VjY2Eud2VsY2luYXQuY29tL0NFUlRTL1Jvb3RDQS5jcnQwSgYD
VR0gBEMwQTAHBgVngQwBATA2BgpghkgBhvhCAYcEMCgwJgYIKwYBBQUHAgEWGmh0
dHBzOi8vZWNjYS53ZWxjaW5hdC5jb20vMAoGCCqGSM49BAMEA4GMADCBiAJCANx+
EwcUdOKzJM4SpEkHDqw4P4if6uPtIEDwzjXq3RFW0vrroLZeyOLnJtSKsEGITaJP
ltbzhpYaSutqS22u2WkEAkIBx9Z5dEt+/ZtKs9Kb904te9dH17smOlkaK9sBHk9c
rGSH5xQpcB+Qa28ZydKp3YUNG9KppHVHeprov2gcaahEbfg=
-----END CERTIFICATE-----
