Certificate:
    Data:
        Version: 3 (0x2)
        Serial Number:
            3c:39:14:be:0f:26:ad:6a:59:29:26:e0:46:5d:2e:25:fa:cf:15:57
        Signature Algorithm: ecdsa-with-SHA512
        Issuer: C=TW, ST=\xE5\x8F\xB0\xE7\x81\xA3\xE7\x9C\x81, O=LCINAT\xE7\xA7\x81\xE4\xBA\xBA\xE6\x86\x91\xE8\xAD\x89\xE7\xAE\xA1\xE7\x90\x86\xE4\xB8\xAD\xE5\xBF\x83, OU=ECC\xE6\x86\x91\xE8\xAD\x89\xE4\xB8\xAD\xE5\xBF\x83, CN=LCINAT ECC CA\xE6\xA0\xB9\xE6\x86\x91\xE8\xAD\x89/businessCategory=Private Organization/serialNumber=PriOrg-1120200000T/street=\xE8\x98\x86\xE6\xB4\xB2\xE5\x8D\x80\xE6\xB0\xB8\xE6\xA8\x82\xE8\xA1\x9755\xE8\x99\x9F/postalCode=247/jurisdictionL=\xE6\x96\xB0\xE5\x8C\x97\xE5\xB8\x82/jurisdictionST=\xE5\x8F\xB0\xE7\x81\xA3\xE7\x9C\x81/jurisdictionC=TW
        Validity
            Not Before: Feb  3 13:53:57 2023 GMT
            Not After : Mar  7 13:53:57 2024 GMT
        Subject: C=TW, ST=\xE5\x8F\xB0\xE7\x81\xA3\xE7\x9C\x81, L=\xE6\x96\xB0\xE5\x8C\x97\xE5\xB8\x82, O=LCINAT\xE7\xA7\x81\xE4\xBA\xBA\xE6\x86\x91\xE8\xAD\x89\xE7\xAE\xA1\xE7\x90\x86\xE4\xB8\xAD\xE5\xBF\x83, OU=ECC\xE6\x86\x91\xE8\xAD\x89\xE4\xB8\xAD\xE5\xBF\x83, CN=LCINAT ED448 Server CA/businessCategory=Private Organization/serialNumber=PriOrg-1120200000T/street=\xE8\x98\x86\xE6\xB4\xB2\xE5\x8D\x80\xE6\xB0\xB8\xE6\xA8\x82\xE8\xA1\x9755\xE8\x99\x9F/postalCode=247/jurisdictionL=\xE6\x96\xB0\xE5\x8C\x97\xE5\xB8\x82/jurisdictionST=\xE5\x8F\xB0\xE7\x81\xA3\xE7\x9C\x81/jurisdictionC=TW
        Subject Public Key Info:
            Public Key Algorithm: ED448
                ED448 Public-Key:
                pub:
                    d6:00:b1:6e:29:8d:a5:0e:bf:48:b8:2e:10:16:aa:
                    e1:a4:b5:4d:22:f0:66:8c:71:dd:12:ab:5a:a3:80:
                    59:c0:5b:3b:51:85:44:19:85:94:ca:62:8f:b1:16:
                    d9:78:05:10:b9:98:bc:ca:0f:6c:24:80
        X509v3 extensions:
            X509v3 Subject Key Identifier: 
                E7:C1:CD:58:02:82:23:C0:75:33:F6:C7:82:1A:3D:89:0C:45:61:8A
            X509v3 Authority Key Identifier: 
                08:74:35:58:94:3D:F8:0C:7C:49:2D:EC:04:A3:9E:7B:2F:E5:B8:1B
            X509v3 Issuer Alternative Name: 
                <EMPTY>

            X509v3 Basic Constraints: critical
                CA:TRUE
            X509v3 CRL Distribution Points: 
                Full Name:
                  URI:https://ecca.welcinat.com/CRL/ROOTCA/ca.crl
            Authority Information Access: 
                CA Issuers - URI:https://ecca.welcinat.com/CERTS/RootCA.crt
            X509v3 Certificate Policies: 
                Policy: 2.23.140.1.1
                Policy: trustList
                  CPS: https://ecca.welcinat.com/
    Signature Algorithm: ecdsa-with-SHA512
    Signature Value:
        30:81:87:02:42:01:fc:75:e9:d5:30:61:c4:96:00:89:45:80:
        1a:d7:6a:e2:d6:fc:11:4f:35:f6:fc:41:81:c6:08:88:8c:10:
        a9:74:5f:3a:61:44:e2:41:8e:36:23:df:4a:d7:dc:26:ad:73:
        d2:ce:6d:21:91:8b:47:bc:e0:95:10:7f:d5:1f:60:0f:94:02:
        41:49:76:63:35:2f:48:d6:bb:97:6b:d6:23:b2:80:7c:d8:cf:
        a0:7b:9c:1a:cf:6c:ce:71:74:e2:04:88:f7:eb:f0:6f:ff:fe:
        a6:d1:50:42:82:92:b1:d6:63:6c:eb:1f:9d:0d:f0:03:99:cf:
        7b:ac:a0:4d:23:c1:b8:45:2a:8e:15:56
-----BEGIN CERTIFICATE-----
MIIE+DCCBFqgAwIBAgIUPDkUvg8mrWpZKSbgRl0uJfrPFVcwCgYIKoZIzj0EAwQw
ggE+MQswCQYDVQQGEwJUVzESMBAGA1UECAwJ5Y+w54Gj55yBMScwJQYDVQQKDB5M
Q0lOQVTnp4HkurrmhpHorYnnrqHnkIbkuK3lv4MxGDAWBgNVBAsMD0VDQ+aGkeit
ieS4reW/gzEfMB0GA1UEAwwWTENJTkFUIEVDQyBDQeagueaGkeitiTEdMBsGA1UE
DwwUUHJpdmF0ZSBPcmdhbml6YXRpb24xGzAZBgNVBAUTElByaU9yZy0xMTIwMjAw
MDAwVDEgMB4GA1UECQwX6JiG5rSy5Y2A5rC45qiC6KGXNTXomZ8xDDAKBgNVBBEM
AzI0NzEaMBgGCysGAQQBgjc8AgEBDAnmlrDljJfluIIxGjAYBgsrBgEEAYI3PAIB
AgwJ5Y+w54Gj55yBMRMwEQYLKwYBBAGCNzwCAQMTAlRXMB4XDTIzMDIwMzEzNTM1
N1oXDTI0MDMwNzEzNTM1N1owggFSMQswCQYDVQQGEwJUVzESMBAGA1UECAwJ5Y+w
54Gj55yBMRIwEAYDVQQHDAnmlrDljJfluIIxJzAlBgNVBAoMHkxDSU5BVOengeS6
uuaGkeitieeuoeeQhuS4reW/gzEYMBYGA1UECwwPRUND5oaR6K2J5Lit5b+DMR8w
HQYDVQQDDBZMQ0lOQVQgRUQ0NDggU2VydmVyIENBMR0wGwYDVQQPDBRQcml2YXRl
IE9yZ2FuaXphdGlvbjEbMBkGA1UEBRMSUHJpT3JnLTExMjAyMDAwMDBUMSAwHgYD
VQQJDBfomIbmtLLljYDmsLjmqILooZc1NeiZnzEMMAoGA1UEEQwDMjQ3MRowGAYL
KwYBBAGCNzwCAQEMCeaWsOWMl+W4gjEaMBgGCysGAQQBgjc8AgECDAnlj7DngaPn
nIExEzARBgsrBgEEAYI3PAIBAxMCVFcwQzAFBgMrZXEDOgDWALFuKY2lDr9IuC4Q
FqrhpLVNIvBmjHHdEqtao4BZwFs7UYVEGYWUymKPsRbZeAUQuZi8yg9sJICjggEy
MIIBLjAdBgNVHQ4EFgQU58HNWAKCI8B1M/bHgho9iQxFYYowHwYDVR0jBBgwFoAU
CHQ1WJQ9+Ax8SS3sBKOeey/luBswCQYDVR0SBAIwADAPBgNVHRMBAf8EBTADAQH/
MDwGA1UdHwQ1MDMwMaAvoC2GK2h0dHBzOi8vZWNjYS53ZWxjaW5hdC5jb20vQ1JM
L1JPT1RDQS9jYS5jcmwwRgYIKwYBBQUHAQEEOjA4MDYGCCsGAQUFBzAChipodHRw
czovL2VjY2Eud2VsY2luYXQuY29tL0NFUlRTL1Jvb3RDQS5jcnQwSgYDVR0gBEMw
QTAHBgVngQwBATA2BgpghkgBhvhCAYcEMCgwJgYIKwYBBQUHAgEWGmh0dHBzOi8v
ZWNjYS53ZWxjaW5hdC5jb20vMAoGCCqGSM49BAMEA4GLADCBhwJCAfx16dUwYcSW
AIlFgBrXauLW/BFPNfb8QYHGCIiMEKl0XzphROJBjjYj30rX3Catc9LObSGRi0e8
4JUQf9UfYA+UAkFJdmM1L0jWu5dr1iOygHzYz6B7nBrPbM5xdOIEiPfr8G///qbR
UEKCkrHWY2zrH50N8AOZz3usoE0jwbhFKo4VVg==
-----END CERTIFICATE-----
